target datalayout = "e-m:e-p270:32:32-p271:32:32-p272:64:64-i64:64-i128:128-f80:128-n8:16:32:64-S128"
target triple = "x86_64-pc-linux-gnu"

%"class.icu_77::UObject" = type { ptr }
%"class.icu_77::UnicodeString" = type { %"class.icu_77::Replaceable", %"union.icu_77::UnicodeString::StackBufferOrFields" }
%"class.icu_77::Replaceable" = type { %"class.icu_77::UObject" }
%"union.icu_77::UnicodeString::StackBufferOrFields" = type { %struct.anon.0, [32 x i8] }
%struct.anon.0 = type { i16, i32, i32, ptr }

; Function Attrs: inlinehint mustprogress nounwind uwtable
define linkonce_odr noundef i32 @_ZNK6icu_7713UnicodeString14getShortLengthEv(ptr noundef nonnull align 8 dereferenceable(64) %0) #2 comdat align 2 {
  %2 = alloca ptr, align 8
  store ptr %0, ptr %2, align 8, !tbaa !58
  %3 = load ptr, ptr %2, align 8
  %4 = getelementptr inbounds nuw %"class.icu_77::UnicodeString", ptr %3, i32 0, i32 1
  %5 = getelementptr inbounds nuw %struct.anon.0, ptr %4, i32 0, i32 0
  %6 = load i16, ptr %5, align 8, !tbaa !46
  %7 = sext i16 %6 to i32
  %8 = ashr i32 %7, 5
  ret i32 %8
}

; Function Attrs: inlinehint mustprogress nounwind uwtable
define linkonce_odr noundef signext i8 @_ZNK6icu_7713UnicodeString14hasShortLengthEv(ptr noundef nonnull align 8 dereferenceable(64) %0) #2 comdat align 2 {
  %2 = alloca ptr, align 8
  store ptr %0, ptr %2, align 8, !tbaa !58
  %3 = load ptr, ptr %2, align 8
  %4 = getelementptr inbounds nuw %"class.icu_77::UnicodeString", ptr %3, i32 0, i32 1
  %5 = getelementptr inbounds nuw %struct.anon.0, ptr %4, i32 0, i32 0
  %6 = load i16, ptr %5, align 8, !tbaa !46
  %7 = sext i16 %6 to i32
  %8 = icmp sge i32 %7, 0
  %9 = zext i1 %8 to i8
  ret i8 %9
}

; Function Attrs: inlinehint mustprogress uwtable
define linkonce_odr noundef i32 @_ZNK6icu_7713UnicodeString6lengthEv(ptr noundef nonnull align 8 dereferenceable(64) %0) #8 comdat align 2 {
  %2 = alloca ptr, align 8
  store ptr %0, ptr %2, align 8, !tbaa !58
  %3 = load ptr, ptr %2, align 8
  %4 = call noundef signext i8 @_ZNK6icu_7713UnicodeString14hasShortLengthEv(ptr noundef nonnull align 8 dereferenceable(64) %3)
  %5 = icmp ne i8 %4, 0
  br i1 %5, label %6, label %8

6:                                                ; preds = %1
  %7 = call noundef i32 @_ZNK6icu_7713UnicodeString14getShortLengthEv(ptr noundef nonnull align 8 dereferenceable(64) %3)
  br label %12

8:                                                ; preds = %1
  %9 = getelementptr inbounds nuw %"class.icu_77::UnicodeString", ptr %3, i32 0, i32 1
  %10 = getelementptr inbounds nuw %struct.anon.0, ptr %9, i32 0, i32 1
  %11 = load i32, ptr %10, align 4, !tbaa !46
  br label %12

12:                                               ; preds = %8, %6
  %13 = phi i32 [ %7, %6 ], [ %11, %8 ]
  ret i32 %13
}

; Function Attrs: mustprogress uwtable
define noundef i32 @_ZNK6icu_779SpoofImpl17findHiddenOverlayERKNS_13UnicodeStringER10UErrorCode(ptr noundef nonnull align 8 dereferenceable(44) %0, ptr noundef nonnull align 8 dereferenceable(64) %1, ptr noundef nonnull align 4 dereferenceable(4) %2) #1 align 2 {
  %4 = alloca i32, align 4
  %5 = alloca ptr, align 8
  %6 = alloca ptr, align 8
  %7 = alloca ptr, align 8
  %8 = alloca i8, align 1
  %9 = alloca i32, align 4
  %10 = alloca i32, align 4
  %11 = alloca i32, align 4
  %12 = alloca i8, align 1
  store ptr %0, ptr %5, align 8, !tbaa !3
  store ptr %1, ptr %6, align 8, !tbaa !58
  store ptr %2, ptr %7, align 8, !tbaa !10
  %13 = load ptr, ptr %5, align 8
  call void @llvm.lifetime.start.p0(i64 1, ptr %8) #15
  store i8 0, ptr %8, align 1, !tbaa !63
  call void @llvm.lifetime.start.p0(i64 4, ptr %9) #15
  store i32 0, ptr %9, align 4, !tbaa !48
  br label %14

14:                                               ; preds = %53, %3
  %15 = load i32, ptr %9, align 4, !tbaa !48
  %16 = load ptr, ptr %6, align 8, !tbaa !58
  %17 = call noundef i32 @_ZNK6icu_7713UnicodeString6lengthEv(ptr noundef nonnull align 8 dereferenceable(64) %16)
  %18 = icmp slt i32 %15, %17
  br i1 %18, label %20, label %19

19:                                               ; preds = %14
  store i32 2, ptr %10, align 4
  br label %54

20:                                               ; preds = %14
  call void @llvm.lifetime.start.p0(i64 4, ptr %11) #15
  %21 = load ptr, ptr %6, align 8, !tbaa !58
  %22 = load i32, ptr %9, align 4, !tbaa !48
  %23 = call noundef i32 @_ZNK6icu_7713UnicodeString8char32AtEi(ptr noundef nonnull align 8 dereferenceable(64) %21, i32 noundef %22)
  store i32 %23, ptr %11, align 4, !tbaa !48
  %24 = load i8, ptr %8, align 1, !tbaa !63, !range !65, !noundef !66
  %25 = trunc i8 %24 to i1
  br i1 %25, label %26, label %31

26:                                               ; preds = %20
  %27 = load i32, ptr %11, align 4, !tbaa !48
  %28 = icmp eq i32 %27, 775
  br i1 %28, label %29, label %31

29:                                               ; preds = %26
  %30 = load i32, ptr %9, align 4, !tbaa !48
  store i32 %30, ptr %4, align 4
  store i32 1, ptr %10, align 4
  br label %51

31:                                               ; preds = %26, %20
  call void @llvm.lifetime.start.p0(i64 1, ptr %12) #15
  %32 = load i32, ptr %11, align 4, !tbaa !48
  %33 = call zeroext i8 @u_getCombiningClass_77(i32 noundef %32)
  store i8 %33, ptr %12, align 1, !tbaa !46
  %34 = load i8, ptr %12, align 1, !tbaa !46
  %35 = zext i8 %34 to i32
  %36 = icmp eq i32 %35, 0
  br i1 %36, label %41, label %37

37:                                               ; preds = %31
  %38 = load i8, ptr %12, align 1, !tbaa !46
  %39 = zext i8 %38 to i32
  %40 = icmp eq i32 %39, 230
  br i1 %40, label %41, label %45

41:                                               ; preds = %37, %31
  %42 = load i32, ptr %11, align 4, !tbaa !48
  %43 = call noundef zeroext i1 @_ZNK6icu_779SpoofImpl34isIllegalCombiningDotLeadCharacterEi(ptr noundef nonnull align 8 dereferenceable(44) %13, i32 noundef %42)
  %44 = zext i1 %43 to i8
  store i8 %44, ptr %8, align 1, !tbaa !63
  br label %45

45:                                               ; preds = %41, %37
  %46 = load i32, ptr %11, align 4, !tbaa !48
  %47 = icmp ule i32 %46, 65535
  %48 = select i1 %47, i32 1, i32 2
  %49 = load i32, ptr %9, align 4, !tbaa !48
  %50 = add nsw i32 %49, %48
  store i32 %50, ptr %9, align 4, !tbaa !48
  call void @llvm.lifetime.end.p0(i64 1, ptr %12) #15
  store i32 0, ptr %10, align 4
  br label %51

51:                                               ; preds = %45, %29
  call void @llvm.lifetime.end.p0(i64 4, ptr %11) #15
  %52 = load i32, ptr %10, align 4
  switch i32 %52, label %54 [
    i32 0, label %53
  ]

53:                                               ; preds = %51
  br label %14, !llvm.loop !67

54:                                               ; preds = %51, %19
  call void @llvm.lifetime.end.p0(i64 4, ptr %9) #15
  %55 = load i32, ptr %10, align 4
  switch i32 %55, label %57 [
    i32 2, label %56
  ]

56:                                               ; preds = %54
  store i32 -1, ptr %4, align 4
  store i32 1, ptr %10, align 4
  br label %57

57:                                               ; preds = %56, %54
  call void @llvm.lifetime.end.p0(i64 1, ptr %8) #15
  %58 = load i32, ptr %4, align 4
  ret i32 %58
}