; Function Attrs: mustprogress uwtable
define noundef range(i32 -2147483648, 2147483647) i32 @_ZNK6icu_779SpoofImpl17findHiddenOverlayERKNS_13UnicodeStringER10UErrorCode(ptr noundef nonnull readonly align 8 captures(none) dereferenceable(44) %0, ptr noundef nonnull align 8 dereferenceable(64) %1, ptr noundef nonnull readnone align 4 captures(none) dereferenceable(4) %2) local_unnamed_addr #1 align 2 {
  %4 = getelementptr inbounds nuw i8, ptr %1, i64 8
  %5 = getelementptr inbounds nuw i8, ptr %1, i64 12
  %6 = load i16, ptr %4, align 8, !tbaa !38
  %7 = icmp slt i16 %6, 0
  %8 = ashr i16 %6, 5
  %9 = sext i16 %8 to i32
  %10 = load i32, ptr %5, align 4
  %11 = select i1 %7, i32 %10, i32 %9
  %.not31 = icmp sgt i32 %11, 0
  br i1 %.not31, label %.lr.ph, label %.thread

.lr.ph:                                           ; preds = %3, %18
  %.02133 = phi i1 [ %.223, %18 ], [ false, %3 ]
  %.02632 = phi i32 [ %21, %18 ], [ 0, %3 ]
  %12 = tail call noundef i32 @_ZNK6icu_7713UnicodeString8char32AtEi(ptr noundef nonnull align 8 dereferenceable(64) %1, i32 noundef %.02632)
  %13 = icmp eq i32 %12, 775
  %or.cond = and i1 %.02133, %13
  br i1 %or.cond, label %.thread, label %14

14:                                               ; preds = %.lr.ph
  %15 = tail call zeroext i8 @u_getCombiningClass_77(i32 noundef %12)
  switch i8 %15, label %18 [
    i8 -26, label %16
    i8 0, label %16
  ]

16:                                               ; preds = %14, %14
  %17 = tail call noundef zeroext i1 @_ZNK6icu_779SpoofImpl34isIllegalCombiningDotLeadCharacterEi(ptr noundef nonnull align 8 dereferenceable(44) %0, i32 noundef %12)
  br label %18

18:                                               ; preds = %16, %14
  %.223 = phi i1 [ %17, %16 ], [ %.02133, %14 ]
  %19 = icmp ult i32 %12, 65536
  %20 = select i1 %19, i32 1, i32 2
  %21 = add nuw nsw i32 %20, %.02632
  %22 = load i16, ptr %4, align 8, !tbaa !38
  %23 = icmp slt i16 %22, 0
  %24 = ashr i16 %22, 5
  %25 = sext i16 %24 to i32
  %26 = load i32, ptr %5, align 4
  %27 = select i1 %23, i32 %26, i32 %25
  %.not = icmp slt i32 %21, %27
  br i1 %.not, label %.lr.ph, label %.thread

.thread:                                          ; preds = %18, %.lr.ph, %3
  %spec.select = phi i32 [ -1, %3 ], [ %.02632, %.lr.ph ], [ -1, %18 ]
  ret i32 %spec.select
}